; Function Attrs: nounwind uwtable
define dso_local noundef i64 @int4out(ptr noundef readonly captures(none) %0) local_unnamed_addr #0 {
  %2 = getelementptr inbounds nuw i8, ptr %0, i64 32
  %3 = load i64, ptr %2, align 8
  %4 = trunc i64 %3 to i32
  %5 = tail call ptr @palloc(i64 noundef 12) #13
  %6 = tail call i32 @pg_ltoa(i32 noundef %4, ptr noundef %5) #13
  %7 = ptrtoint ptr %5 to i64
  ret i64 %7
}